target datalayout = "e-m:e-p270:32:32-p271:32:32-p272:64:64-i64:64-i128:128-f80:128-n8:16:32:64-S128"
target triple = "x86_64-pc-linux-gnu"

%"class.gmx::AtomsBuilder" = type { ptr, ptr, i32, i32, i32, i32 }
%struct.t_atoms = type { i32, ptr, ptr, ptr, ptr, i32, ptr, ptr, i8, i8, i8, i8, i8 }

; Function Attrs: mustprogress nounwind uwtable
define void @_ZN3gmx12AtomsBuilder10clearAtomsEv(ptr noundef nonnull align 8 dereferenceable(32) %0) #0 align 2 {
  %2 = alloca ptr, align 8
  store ptr %0, ptr %2, align 8, !tbaa !4
  %3 = load ptr, ptr %2, align 8
  %4 = getelementptr inbounds nuw %"class.gmx::AtomsBuilder", ptr %3, i32 0, i32 0
  %5 = load ptr, ptr %4, align 8, !tbaa !13
  %6 = getelementptr inbounds nuw %struct.t_atoms, ptr %5, i32 0, i32 0
  store i32 0, ptr %6, align 8, !tbaa !17
  %7 = getelementptr inbounds nuw %"class.gmx::AtomsBuilder", ptr %3, i32 0, i32 0
  %8 = load ptr, ptr %7, align 8, !tbaa !13
  %9 = getelementptr inbounds nuw %struct.t_atoms, ptr %8, i32 0, i32 5
  store i32 0, ptr %9, align 8, !tbaa !27
  %10 = getelementptr inbounds nuw %"class.gmx::AtomsBuilder", ptr %3, i32 0, i32 4
  store i32 0, ptr %10, align 8, !tbaa !29
  %11 = getelementptr inbounds nuw %"class.gmx::AtomsBuilder", ptr %3, i32 0, i32 5
  store i32 -1, ptr %11, align 4, !tbaa !30
  ret void
}