; Function Attrs: mustprogress nofree norecurse nosync nounwind willreturn memory(write, argmem: readwrite, inaccessiblemem: none) uwtable
define void @_ZN3gmx12AtomsBuilder10clearAtomsEv(ptr noundef nonnull align 8 captures(none) dereferenceable(32) initializes((24, 32)) %0) local_unnamed_addr #4 align 2 {
  %2 = load ptr, ptr %0, align 8, !tbaa !4
  store i32 0, ptr %2, align 8, !tbaa !13
  %3 = getelementptr inbounds nuw i8, ptr %2, i64 40
  store i32 0, ptr %3, align 8, !tbaa !23
  %4 = getelementptr inbounds nuw i8, ptr %0, i64 24
  store i32 0, ptr %4, align 8, !tbaa !25
  %5 = getelementptr inbounds nuw i8, ptr %0, i64 28
  store i32 -1, ptr %5, align 4, !tbaa !26
  ret void
}